target datalayout = "e-m:e-p270:32:32-p271:32:32-p272:64:64-i64:64-i128:128-f80:128-n8:16:32:64-S128"
target triple = "x86_64-pc-linux-gnu"

%"struct.boost::source_location" = type { ptr, ptr, i32, i32 }

@_ZZN5boost4json6detail11string_impl6growthEmmE3loc = internal constant %"struct.boost::source_location" { ptr @.str.85, ptr @.str.86, i32 125, i32 54 }, align 8

; Function Attrs: inlinehint mustprogress nounwind uwtable
define linkonce_odr noundef nonnull align 8 dereferenceable(8) ptr @_ZSt3maxImERKT_S2_S2_(ptr noundef nonnull align 8 dereferenceable(8) %0, ptr noundef nonnull align 8 dereferenceable(8) %1) #1 comdat {
  %3 = alloca ptr, align 8
  %4 = alloca ptr, align 8
  %5 = alloca ptr, align 8
  store ptr %0, ptr %4, align 8, !tbaa !3
  store ptr %1, ptr %5, align 8, !tbaa !3
  %6 = load ptr, ptr %4, align 8, !tbaa !3
  %7 = load i64, ptr %6, align 8, !tbaa !16
  %8 = load ptr, ptr %5, align 8, !tbaa !3
  %9 = load i64, ptr %8, align 8, !tbaa !16
  %10 = icmp ult i64 %7, %9
  br i1 %10, label %11, label %13

11:                                               ; preds = %2
  %12 = load ptr, ptr %5, align 8, !tbaa !3
  store ptr %12, ptr %3, align 8
  br label %15

13:                                               ; preds = %2
  %14 = load ptr, ptr %4, align 8, !tbaa !3
  store ptr %14, ptr %3, align 8
  br label %15

15:                                               ; preds = %13, %11
  %16 = load ptr, ptr %3, align 8
  ret ptr %16
}

; Function Attrs: mustprogress nounwind uwtable
define linkonce_odr hidden noundef i64 @_ZN5boost4json6detail11string_impl8max_sizeEv() #2 comdat align 2 {
  ret i64 2147483646
}

; Function Attrs: mustprogress uwtable
define noundef i32 @_ZN5boost4json6detail11string_impl6growthEmm(i64 noundef %0, i64 noundef %1) #5 align 2 {
  %3 = alloca i32, align 4
  %4 = alloca i64, align 8
  %5 = alloca i64, align 8
  %6 = alloca i64, align 8
  store i64 %0, ptr %4, align 8, !tbaa !16
  store i64 %1, ptr %5, align 8, !tbaa !16
  %7 = load i64, ptr %4, align 8, !tbaa !16
  %8 = call noundef i64 @_ZN5boost4json6detail11string_impl8max_sizeEv() #10
  %9 = icmp ugt i64 %7, %8
  br i1 %9, label %10, label %11

10:                                               ; preds = %2
  call void @_ZN5boost4json6detail18throw_system_errorENS0_5errorEPKNS_15source_locationE(i32 noundef 13, ptr noundef @_ZZN5boost4json6detail11string_impl6growthEmmE3loc) #35
  unreachable

11:                                               ; preds = %2
  %12 = load i64, ptr %5, align 8, !tbaa !16
  %13 = call noundef i64 @_ZN5boost4json6detail11string_impl8max_sizeEv() #10
  %14 = load i64, ptr %5, align 8, !tbaa !16
  %15 = sub i64 %13, %14
  %16 = icmp ugt i64 %12, %15
  br i1 %16, label %17, label %20

17:                                               ; preds = %11
  %18 = call noundef i64 @_ZN5boost4json6detail11string_impl8max_sizeEv() #10
  %19 = trunc i64 %18 to i32
  store i32 %19, ptr %3, align 4
  br label %26

20:                                               ; preds = %11
  call void @llvm.lifetime.start.p0(i64 8, ptr %6) #10
  %21 = load i64, ptr %5, align 8, !tbaa !16
  %22 = mul i64 %21, 2
  store i64 %22, ptr %6, align 8, !tbaa !16
  %23 = call noundef nonnull align 8 dereferenceable(8) ptr @_ZSt3maxImERKT_S2_S2_(ptr noundef nonnull align 8 dereferenceable(8) %6, ptr noundef nonnull align 8 dereferenceable(8) %4)
  %24 = load i64, ptr %23, align 8, !tbaa !16
  %25 = trunc i64 %24 to i32
  store i32 %25, ptr %3, align 4
  call void @llvm.lifetime.end.p0(i64 8, ptr %6) #10
  br label %26

26:                                               ; preds = %20, %17
  %27 = load i32, ptr %3, align 4
  ret i32 %27
}