; Function Attrs: mustprogress uwtable
define noundef i32 @_ZN5boost4json6detail11string_impl6growthEmm(i64 noundef %0, i64 noundef %1) local_unnamed_addr #5 align 2 {
  %3 = icmp ugt i64 %0, 2147483646
  br i1 %3, label %4, label %5

4:                                                ; preds = %2
  tail call void @_ZN5boost4json6detail18throw_system_errorENS0_5errorEPKNS_15source_locationE(i32 noundef 13, ptr noundef nonnull @_ZZN5boost4json6detail11string_impl6growthEmmE3loc) #49
  unreachable

5:                                                ; preds = %2
  %6 = sub i64 2147483646, %1
  %7 = icmp ugt i64 %1, %6
  %8 = shl i64 %1, 1
  %.sroa.speculated = tail call i64 @llvm.umax.i64(i64 %8, i64 %0)
  %9 = trunc i64 %.sroa.speculated to i32
  %.0 = select i1 %7, i32 2147483646, i32 %9
  ret i32 %.0
}